target datalayout = "e-m:e-p270:32:32-p271:32:32-p272:64:64-i64:64-i128:128-f80:128-n8:16:32:64-S128"
target triple = "x86_64-pc-linux-gnu"

%struct.pcre2_memctl = type { ptr, ptr, ptr }
%struct.executable_functions = type { [3 x ptr], [3 x ptr], [3 x i64], i32, i32 }

; Function Attrs: nounwind uwtable
define internal void @pcre2_jit_free(ptr noundef %0, ptr noundef %1) #0 {
  %3 = alloca ptr, align 8
  %4 = alloca ptr, align 8
  %5 = alloca ptr, align 8
  store ptr %0, ptr %3, align 8
  store ptr %1, ptr %4, align 8
  %6 = load ptr, ptr %4, align 8
  store ptr %6, ptr %5, align 8
  %7 = load ptr, ptr %5, align 8
  %8 = getelementptr inbounds %struct.pcre2_memctl, ptr %7, i32 0, i32 1
  %9 = load ptr, ptr %8, align 8
  %10 = load ptr, ptr %3, align 8
  %11 = load ptr, ptr %5, align 8
  %12 = getelementptr inbounds %struct.pcre2_memctl, ptr %11, i32 0, i32 2
  %13 = load ptr, ptr %12, align 8
  call void %9(ptr noundef %10, ptr noundef %13)
  ret void
}

; Function Attrs: nounwind uwtable
define hidden void @_pcre2_jit_free_rodata_8(ptr noundef %0, ptr noundef %1) #0 {
  %3 = alloca ptr, align 8
  %4 = alloca ptr, align 8
  %5 = alloca ptr, align 8
  store ptr %0, ptr %3, align 8
  store ptr %1, ptr %4, align 8
  br label %6

6:                                                ; preds = %9, %2
  %7 = load ptr, ptr %3, align 8
  %8 = icmp ne ptr %7, null
  br i1 %8, label %9, label %15

9:                                                ; preds = %6
  %10 = load ptr, ptr %3, align 8
  %11 = load ptr, ptr %10, align 8
  store ptr %11, ptr %5, align 8
  %12 = load ptr, ptr %3, align 8
  %13 = load ptr, ptr %4, align 8
  call void @pcre2_jit_free(ptr noundef %12, ptr noundef %13)
  %14 = load ptr, ptr %5, align 8
  store ptr %14, ptr %3, align 8
  br label %6

15:                                               ; preds = %6
  ret void
}

; Function Attrs: nounwind uwtable
define internal void @sljit_free_code(ptr noundef %0, ptr noundef %1) #0 {
  %3 = alloca ptr, align 8
  %4 = alloca ptr, align 8
  store ptr %0, ptr %3, align 8
  store ptr %1, ptr %4, align 8
  %5 = load ptr, ptr %3, align 8
  call void @sljit_free_exec(ptr noundef %5)
  ret void
}

; Function Attrs: nounwind uwtable
define hidden void @_pcre2_jit_free_8(ptr noundef %0, ptr noundef %1) #0 {
  %3 = alloca ptr, align 8
  %4 = alloca ptr, align 8
  %5 = alloca ptr, align 8
  %6 = alloca ptr, align 8
  %7 = alloca i32, align 4
  store ptr %0, ptr %3, align 8
  store ptr %1, ptr %4, align 8
  %8 = load ptr, ptr %3, align 8
  store ptr %8, ptr %5, align 8
  %9 = load ptr, ptr %4, align 8
  store ptr %9, ptr %6, align 8
  store i32 0, ptr %7, align 4
  br label %10

10:                                               ; preds = %36, %2
  %11 = load i32, ptr %7, align 4
  %12 = icmp slt i32 %11, 3
  br i1 %12, label %13, label %39

13:                                               ; preds = %10
  %14 = load ptr, ptr %5, align 8
  %15 = getelementptr inbounds %struct.executable_functions, ptr %14, i32 0, i32 0
  %16 = load i32, ptr %7, align 4
  %17 = sext i32 %16 to i64
  %18 = getelementptr inbounds [3 x ptr], ptr %15, i64 0, i64 %17
  %19 = load ptr, ptr %18, align 8
  %20 = icmp ne ptr %19, null
  br i1 %20, label %21, label %28

21:                                               ; preds = %13
  %22 = load ptr, ptr %5, align 8
  %23 = getelementptr inbounds %struct.executable_functions, ptr %22, i32 0, i32 0
  %24 = load i32, ptr %7, align 4
  %25 = sext i32 %24 to i64
  %26 = getelementptr inbounds [3 x ptr], ptr %23, i64 0, i64 %25
  %27 = load ptr, ptr %26, align 8
  call void @sljit_free_code(ptr noundef %27, ptr noundef null)
  br label %28

28:                                               ; preds = %21, %13
  %29 = load ptr, ptr %5, align 8
  %30 = getelementptr inbounds %struct.executable_functions, ptr %29, i32 0, i32 1
  %31 = load i32, ptr %7, align 4
  %32 = sext i32 %31 to i64
  %33 = getelementptr inbounds [3 x ptr], ptr %30, i64 0, i64 %32
  %34 = load ptr, ptr %33, align 8
  %35 = load ptr, ptr %6, align 8
  call void @_pcre2_jit_free_rodata_8(ptr noundef %34, ptr noundef %35)
  br label %36

36:                                               ; preds = %28
  %37 = load i32, ptr %7, align 4
  %38 = add nsw i32 %37, 1
  store i32 %38, ptr %7, align 4
  br label %10

39:                                               ; preds = %10
  %40 = load ptr, ptr %5, align 8
  %41 = load ptr, ptr %6, align 8
  call void @pcre2_jit_free(ptr noundef %40, ptr noundef %41)
  ret void
}