; Function Attrs: nounwind uwtable
define hidden void @_pcre2_jit_free_8(ptr noundef %0, ptr nocapture noundef readonly %1) local_unnamed_addr #0 {
  %3 = getelementptr inbounds i8, ptr %0, i64 24
  %4 = getelementptr i8, ptr %1, i64 8
  %5 = getelementptr i8, ptr %1, i64 16
  br label %6

6:                                                ; preds = %2, %_pcre2_jit_free_rodata_8.exit
  %indvars.iv = phi i64 [ 0, %2 ], [ %indvars.iv.next, %_pcre2_jit_free_rodata_8.exit ]
  %7 = getelementptr inbounds [3 x ptr], ptr %0, i64 0, i64 %indvars.iv
  %8 = load ptr, ptr %7, align 8
  %.not = icmp eq ptr %8, null
  br i1 %.not, label %10, label %9

9:                                                ; preds = %6
  tail call fastcc void @sljit_free_exec(ptr noundef nonnull %8)
  br label %10

10:                                               ; preds = %9, %6
  %11 = getelementptr inbounds [3 x ptr], ptr %3, i64 0, i64 %indvars.iv
  %12 = load ptr, ptr %11, align 8
  %.not6.i = icmp eq ptr %12, null
  br i1 %.not6.i, label %_pcre2_jit_free_rodata_8.exit, label %.lr.ph.i

.lr.ph.i:                                         ; preds = %10, %.lr.ph.i
  %.07.i = phi ptr [ %13, %.lr.ph.i ], [ %12, %10 ]
  %13 = load ptr, ptr %.07.i, align 8
  %.val.i = load ptr, ptr %4, align 8
  %.val5.i = load ptr, ptr %5, align 8
  tail call void %.val.i(ptr noundef nonnull %.07.i, ptr noundef %.val5.i) #18
  %.not.i = icmp eq ptr %13, null
  br i1 %.not.i, label %_pcre2_jit_free_rodata_8.exit, label %.lr.ph.i

_pcre2_jit_free_rodata_8.exit:                    ; preds = %.lr.ph.i, %10
  %indvars.iv.next = add nuw nsw i64 %indvars.iv, 1
  %exitcond.not = icmp eq i64 %indvars.iv.next, 3
  br i1 %exitcond.not, label %14, label %6

14:                                               ; preds = %_pcre2_jit_free_rodata_8.exit
  %.val = load ptr, ptr %4, align 8
  %.val13 = load ptr, ptr %5, align 8
  tail call void %.val(ptr noundef %0, ptr noundef %.val13) #18
  ret void
}